target datalayout = "e-m:e-p270:32:32-p271:32:32-p272:64:64-i64:64-i128:128-f80:128-n8:16:32:64-S128"
target triple = "x86_64-pc-linux-gnu"

%struct.ossl_cmp_msg_st = type { ptr, ptr, ptr, ptr, ptr, ptr }
%struct.ossl_cmp_pkibody_st = type { i32, %union.anon }
%union.anon = type { ptr }

@.str = private unnamed_addr constant [32 x i8] c"../openssl/crypto/cmp/cmp_msg.c\00", align 1
@__func__.ossl_cmp_msg_gen_push0_ITAV = private unnamed_addr constant [28 x i8] c"ossl_cmp_msg_gen_push0_ITAV\00", align 1

; Function Attrs: nounwind uwtable
define i32 @OSSL_CMP_MSG_get_bodytype(ptr noundef %0) #0 {
  %2 = alloca i32, align 4
  %3 = alloca ptr, align 8
  store ptr %0, ptr %3, align 8, !tbaa !10
  %4 = load ptr, ptr %3, align 8, !tbaa !10
  %5 = icmp ne ptr %4, null
  br i1 %5, label %6, label %11

6:                                                ; preds = %1
  %7 = load ptr, ptr %3, align 8, !tbaa !10
  %8 = getelementptr inbounds nuw %struct.ossl_cmp_msg_st, ptr %7, i32 0, i32 1
  %9 = load ptr, ptr %8, align 8, !tbaa !22
  %10 = icmp ne ptr %9, null
  br label %11

11:                                               ; preds = %6, %1
  %12 = phi i1 [ false, %1 ], [ %10, %6 ]
  %13 = zext i1 %12 to i32
  %14 = icmp ne i32 %13, 0
  %15 = xor i1 %14, true
  %16 = xor i1 %15, true
  %17 = zext i1 %16 to i32
  %18 = sext i32 %17 to i64
  %19 = call i64 @llvm.expect.i64(i64 %18, i64 1)
  %20 = icmp ne i64 %19, 0
  br i1 %20, label %22, label %21

21:                                               ; preds = %11
  store i32 -1, ptr %2, align 4
  br label %28

22:                                               ; preds = %11
  %23 = load ptr, ptr %3, align 8, !tbaa !10
  %24 = getelementptr inbounds nuw %struct.ossl_cmp_msg_st, ptr %23, i32 0, i32 1
  %25 = load ptr, ptr %24, align 8, !tbaa !22
  %26 = getelementptr inbounds nuw %struct.ossl_cmp_pkibody_st, ptr %25, i32 0, i32 0
  %27 = load i32, ptr %26, align 8, !tbaa !23
  store i32 %27, ptr %2, align 4
  br label %28

28:                                               ; preds = %22, %21
  %29 = load i32, ptr %2, align 4
  ret i32 %29
}

; Function Attrs: nounwind uwtable
define i32 @ossl_cmp_msg_gen_push0_ITAV(ptr noundef %0, ptr noundef %1) #0 {
  %3 = alloca i32, align 4
  %4 = alloca ptr, align 8
  %5 = alloca ptr, align 8
  %6 = alloca i32, align 4
  %7 = alloca i32, align 4
  store ptr %0, ptr %4, align 8, !tbaa !10
  store ptr %1, ptr %5, align 8, !tbaa !135
  call void @llvm.lifetime.start.p0(i64 4, ptr %6) #6
  %8 = load ptr, ptr %4, align 8, !tbaa !10
  %9 = icmp ne ptr %8, null
  br i1 %9, label %10, label %13

10:                                               ; preds = %2
  %11 = load ptr, ptr %5, align 8, !tbaa !135
  %12 = icmp ne ptr %11, null
  br label %13

13:                                               ; preds = %10, %2
  %14 = phi i1 [ false, %2 ], [ %12, %10 ]
  %15 = zext i1 %14 to i32
  %16 = icmp ne i32 %15, 0
  %17 = xor i1 %16, true
  %18 = xor i1 %17, true
  %19 = zext i1 %18 to i32
  %20 = sext i32 %19 to i64
  %21 = call i64 @llvm.expect.i64(i64 %20, i64 1)
  %22 = icmp ne i64 %21, 0
  br i1 %22, label %24, label %23

23:                                               ; preds = %13
  store i32 0, ptr %3, align 4
  store i32 1, ptr %7, align 4
  br label %40

24:                                               ; preds = %13
  %25 = load ptr, ptr %4, align 8, !tbaa !10
  %26 = call i32 @OSSL_CMP_MSG_get_bodytype(ptr noundef %25)
  store i32 %26, ptr %6, align 4, !tbaa !20
  %27 = load i32, ptr %6, align 4, !tbaa !20
  %28 = icmp ne i32 %27, 21
  br i1 %28, label %29, label %33

29:                                               ; preds = %24
  %30 = load i32, ptr %6, align 4, !tbaa !20
  %31 = icmp ne i32 %30, 22
  br i1 %31, label %32, label %33

32:                                               ; preds = %29
  call void @ERR_new()
  call void @ERR_set_debug(ptr noundef @.str, i32 noundef 714, ptr noundef @__func__.ossl_cmp_msg_gen_push0_ITAV)
  call void (i32, i32, ptr, ...) @ERR_set_error(i32 noundef 58, i32 noundef 100, ptr noundef null)
  store i32 0, ptr %3, align 4
  store i32 1, ptr %7, align 4
  br label %40

33:                                               ; preds = %29, %24
  %34 = load ptr, ptr %4, align 8, !tbaa !10
  %35 = getelementptr inbounds nuw %struct.ossl_cmp_msg_st, ptr %34, i32 0, i32 1
  %36 = load ptr, ptr %35, align 8, !tbaa !22
  %37 = getelementptr inbounds nuw %struct.ossl_cmp_pkibody_st, ptr %36, i32 0, i32 1
  %38 = load ptr, ptr %5, align 8, !tbaa !135
  %39 = call i32 @OSSL_CMP_ITAV_push0_stack_item(ptr noundef %37, ptr noundef %38)
  store i32 %39, ptr %3, align 4
  store i32 1, ptr %7, align 4
  br label %40

40:                                               ; preds = %33, %32, %23
  call void @llvm.lifetime.end.p0(i64 4, ptr %6) #6
  %41 = load i32, ptr %3, align 4
  ret i32 %41
}