; Function Attrs: nounwind uwtable
define i32 @ossl_cmp_msg_gen_push0_ITAV(ptr noundef readonly captures(address_is_null) %0, ptr noundef %1) local_unnamed_addr #0 {
  %3 = icmp ne ptr %0, null
  %4 = icmp ne ptr %1, null
  %5 = and i1 %3, %4
  br i1 %5, label %6, label %14, !prof !56

6:                                                ; preds = %2
  %7 = getelementptr inbounds nuw i8, ptr %0, i64 8
  %8 = load ptr, ptr %7, align 8, !tbaa !17
  %.not4.i = icmp eq ptr %8, null
  br i1 %.not4.i, label %OSSL_CMP_MSG_get_bodytype.exit.thread, label %OSSL_CMP_MSG_get_bodytype.exit, !prof !18

OSSL_CMP_MSG_get_bodytype.exit:                   ; preds = %6
  %9 = load i32, ptr %8, align 8, !tbaa !19
  %10 = add i32 %9, -23
  %or.cond = icmp ult i32 %10, -2
  br i1 %or.cond, label %OSSL_CMP_MSG_get_bodytype.exit.thread, label %11

OSSL_CMP_MSG_get_bodytype.exit.thread:            ; preds = %6, %OSSL_CMP_MSG_get_bodytype.exit
  tail call void @ERR_new() #7
  tail call void @ERR_set_debug(ptr noundef nonnull @.str, i32 noundef 714, ptr noundef nonnull @__func__.ossl_cmp_msg_gen_push0_ITAV) #7
  tail call void (i32, i32, ptr, ...) @ERR_set_error(i32 noundef 58, i32 noundef 100, ptr noundef null) #7
  br label %14

11:                                               ; preds = %OSSL_CMP_MSG_get_bodytype.exit
  %12 = getelementptr inbounds nuw i8, ptr %8, i64 8
  %13 = tail call i32 @OSSL_CMP_ITAV_push0_stack_item(ptr noundef nonnull %12, ptr noundef nonnull %1) #7
  br label %14

14:                                               ; preds = %2, %11, %OSSL_CMP_MSG_get_bodytype.exit.thread
  %.0 = phi i32 [ 0, %OSSL_CMP_MSG_get_bodytype.exit.thread ], [ %13, %11 ], [ 0, %2 ]
  ret i32 %.0
}